(lp0
(lp1
(S'.'
p2
ccopy_reg
_reconstructor
p3
(c__main__
CharCount
p4
c__builtin__
dict
p5
(dp6
S'3'
p7
I66
sS'6'
p8
I1
sS'8'
p9
I2
sS'5'
p10
I6
sS'a'
p11
I13426
sS'1'
p12
I19
sS'c'
p13
I394330
sS'b'
p14
I34823
sS'e'
p15
I10010
sS'd'
p16
I6432
sS'g'
p17
I14892
sS'f'
p18
I4478
sS'i'
p19
I55446
sS'h'
p20
I2094
sS'k'
p21
I4931
sS'j'
p22
I3725
sS'm'
p23
I11844
sS'l'
p24
I5190
sS'o'
p25
I31154
sS'n'
p26
I34885
sS'q'
p27
I226
sS'p'
p28
I9347
sS's'
p29
I8791
sS'r'
p30
I65782
sS'u'
p31
I21766
sS't'
p32
I18231
sS'w'
p33
I6999
sS'v'
p34
I6692
sS'y'
p35
I208
sS'x'
p36
I5379
sS'z'
p37
I1709
stp38
Rp39
tp40
a(g12
g3
(g4
g5
(dp41
g2
I4106
sg12
I1143
sS'0'
p42
I2373
sg7
I679
sS'2'
p43
I1951
sg10
I484
sS'4'
p44
I504
sS'7'
p45
I517
sg8
I680
sS'9'
p46
I1124
sg9
I941
sS'_'
p47
I19
sg11
I3490
sg13
I290
sg14
I308
sg15
I141
sg16
I216
sg17
I104
sg18
I169
sg19
I88
sg20
I88
sg21
I101
sg22
I39
sg23
I167
sg24
I83
sg25
I69
sg26
I103
sg27
I22
sg28
I160
sg29
I306
sg30
I65
sg31
I42
sg32
I206
sg33
I71
sg34
I62
sg35
I27
sg36
I222
sg37
I40
stp48
Rp49
tp50
a(g42
g3
(g4
g5
(dp51
g2
I2874
sg12
I1922
sg42
I2225
sg7
I340
sg43
I618
sg10
I252
sg44
I283
sg45
I313
sg8
I270
sg46
I282
sg9
I375
sg47
I37
sg11
I1442
sg13
I233
sg14
I288
sg15
I116
sg16
I213
sg17
I109
sg18
I160
sg19
I68
sg20
I76
sg21
I104
sg22
I35
sg23
I181
sg24
I63
sg25
I41
sg26
I87
sg27
I18
sg28
I174
sg29
I195
sg30
I79
sg31
I34
sg32
I139
sg33
I69
sg34
I58
sg35
I27
sg36
I61
sg37
I23
stp52
Rp53
tp54
a(g7
g3
(g4
g5
(dp55
g2
I2617
sg12
I360
sg42
I639
sg7
I452
sg43
I378
sg10
I291
sg44
I355
sg45
I311
sg8
I1406
sg46
I269
sg9
I284
sg47
I18
sg11
I530
sg13
I317
sg14
I302
sg15
I149
sg16
I839
sg17
I136
sg18
I167
sg19
I119
sg20
I88
sg21
I78
sg22
I51
sg23
I354
sg24
I159
sg25
I52
sg26
I109
sg27
I27
sg28
I148
sg29
I258
sg30
I144
sg31
I62
sg32
I142
sg33
I53
sg34
I33
sg35
I36
sg36
I67
sg37
I26
stp56
Rp57
tp58
a(g43
g3
(g4
g5
(dp59
g2
I3146
sg12
I1055
sg42
I2374
sg7
I1174
sg43
I576
sg10
I433
sg44
I3918
sg45
I266
sg8
I279
sg46
I267
sg9
I313
sg47
I18
sg11
I473
sg13
I503
sg14
I487
sg15
I181
sg16
I317
sg17
I179
sg18
I172
sg19
I114
sg20
I115
sg21
I147
sg22
I52
sg23
I260
sg24
I110
sg25
I90
sg26
I115
sg27
I20
sg28
I216
sg29
I258
sg30
I122
sg31
I169
sg32
I189
sg33
I118
sg34
I48
sg35
I57
sg36
I47
sg37
I72
stp60
Rp61
tp62
a(g10
g3
(g4
g5
(dp63
g2
I2059
sg12
I375
sg42
I483
sg7
I207
sg43
I337
sg10
I460
sg44
I302
sg45
I212
sg8
I270
sg46
I225
sg9
I233
sg47
I12
sg11
I312
sg13
I224
sg14
I205
sg15
I97
sg16
I174
sg17
I77
sg18
I103
sg19
I49
sg20
I42
sg21
I68
sg22
I36
sg23
I103
sg24
I42
sg25
I29
sg26
I41
sg27
I8
sg28
I75
sg29
I108
sg30
I27
sg31
I23
sg32
I66
sg33
I30
sg34
I17
sg35
I11
sg36
I24
sg37
I19
stp64
Rp65
tp66
a(g44
g3
(g4
g5
(dp67
g2
I4241
sg12
I275
sg42
I399
sg7
I271
sg43
I334
sg10
I305
sg44
I362
sg45
I527
sg8
I216
sg46
I195
sg9
I277
sg47
I21
sg11
I545
sg13
I284
sg14
I296
sg15
I201
sg16
I340
sg17
I172
sg18
I233
sg19
I125
sg20
I375
sg21
I295
sg22
I52
sg23
I256
sg24
I175
sg25
I60
sg26
I111
sg27
I6
sg28
I208
sg29
I325
sg30
I107
sg31
I650
sg32
I215
sg33
I119
sg34
I59
sg35
I207
sg36
I138
sg37
I18
stp68
Rp69
tp70
a(g45
g3
(g4
g5
(dp71
g2
I2224
sg12
I260
sg42
I275
sg7
I242
sg43
I488
sg10
I208
sg44
I339
sg45
I749
sg8
I230
sg46
I198
sg9
I305
sg47
I21
sg11
I345
sg13
I154
sg14
I186
sg15
I122
sg16
I154
sg17
I63
sg18
I115
sg19
I56
sg20
I54
sg21
I97
sg22
I24
sg23
I103
sg24
I62
sg25
I48
sg26
I43
sg27
I3
sg28
I56
sg29
I549
sg30
I38
sg31
I28
sg32
I82
sg33
I23
sg34
I21
sg35
I23
sg36
I41
sg37
I25
stp72
Rp73
tp74
a(g8
g3
(g4
g5
(dp75
g2
I1409
sg12
I263
sg42
I826
sg7
I257
sg43
I217
sg10
I776
sg44
I260
sg45
I222
sg8
I453
sg46
I332
sg9
I422
sg47
I25
sg11
I233
sg13
I169
sg14
I151
sg15
I69
sg16
I113
sg17
I45
sg18
I92
sg19
I25
sg20
I26
sg21
I222
sg22
I22
sg23
I52
sg24
I26
sg25
I24
sg26
I27
sg27
I11
sg28
I44
sg29
I48
sg30
I23
sg31
I12
sg32
I50
sg33
I15
sg34
I16
sg35
I15
sg36
I10
sg37
I15
stp76
Rp77
tp78
a(g46
g3
(g4
g5
(dp79
g2
I2100
sg12
I391
sg42
I530
sg7
I217
sg43
I319
sg10
I217
sg44
I199
sg45
I248
sg8
I333
sg46
I899
sg9
I392
sg47
I28
sg11
I275
sg13
I170
sg14
I175
sg15
I72
sg16
I133
sg17
I66
sg18
I91
sg19
I44
sg20
I36
sg21
I44
sg22
I56
sg23
I62
sg24
I48
sg25
I25
sg26
I47
sg27
I8
sg28
I48
sg29
I102
sg30
I33
sg31
I13
sg32
I63
sg33
I33
sg34
I8
sg35
I15
sg36
I47
sg37
I8
stp80
Rp81
tp82
a(g9
g3
(g4
g5
(dp83
g2
I2383
sg12
I250
sg42
I1337
sg7
I181
sg43
I198
sg10
I212
sg44
I200
sg45
I189
sg8
I266
sg46
I320
sg9
I1039
sg47
I25
sg11
I248
sg13
I141
sg14
I213
sg15
I78
sg16
I137
sg17
I59
sg18
I101
sg19
I50
sg20
I55
sg21
I72
sg22
I22
sg23
I84
sg24
I37
sg25
I27
sg26
I43
sg27
I8
sg28
I84
sg29
I292
sg30
I29
sg31
I15
sg32
I100
sg33
I22
sg34
I27
sg35
I18
sg36
I21
sg37
I8
stp84
Rp85
tp86
a(g47
g3
(g4
g5
(dp87
g45
I20
sg43
I13
sg11
I16
sg12
I16
sg13
I14
sg14
I18
sg15
I10
sg16
I16
sg18
I9
sg19
I1
sg20
I1
sg23
I2
sg7
I15
sg26
I2
sg27
I1
sg42
I8
sg29
I2
sg30
I1
sg10
I19
sg44
I14
sg33
I1
sg8
I9
sg46
I14
sg9
I18
sg32
I2
stp88
Rp89
tp90
a(g11
g3
(g4
g5
(dp91
g2
I56248
sg12
I784
sg42
I227
sg7
I599
sg43
I1152
sg10
I331
sg44
I403
sg45
I377
sg8
I243
sg46
I270
sg9
I242
sg11
I6438
sg13
I29092
sg14
I20378
sg15
I5184
sg16
I32312
sg17
I18133
sg18
I10262
sg19
I24058
sg20
I10946
sg21
I16208
sg22
I4355
sg23
I38051
sg24
I65510
sg25
I4087
sg26
I91969
sg27
I1486
sg28
I21608
sg29
I43556
sg30
I85789
sg31
I14812
sg32
I50657
sg33
I5303
sg34
I14351
sg35
I17432
sg36
I3166
sg37
I11420
stp92
Rp93
tp94
a(g13
g3
(g4
g5
(dp95
g2
I17163
sg12
I321
sg42
I138
sg7
I190
sg43
I335
sg10
I127
sg44
I203
sg45
I131
sg8
I125
sg46
I128
sg9
I113
sg11
I35585
sg13
I5513
sg14
I1703
sg15
I23736
sg16
I2043
sg17
I1136
sg18
I1219
sg19
I14954
sg20
I39067
sg21
I13865
sg22
I361
sg23
I1982
sg24
I13990
sg25
I418875
sg26
I3708
sg27
I258
sg28
I1790
sg29
I6223
sg30
I10231
sg31
I7463
sg32
I12989
sg33
I575
sg34
I669
sg35
I2605
sg36
I253
sg37
I1306
stp96
Rp97
tp98
a(g14
g3
(g4
g5
(dp99
g2
I14516
sg12
I405
sg42
I150
sg7
I236
sg43
I486
sg10
I145
sg44
I222
sg45
I162
sg8
I120
sg46
I117
sg9
I140
sg11
I28155
sg13
I2250
sg14
I2639
sg15
I23444
sg16
I3455
sg17
I1298
sg18
I834
sg19
I19950
sg20
I1768
sg21
I836
sg22
I448
sg23
I1592
sg24
I36547
sg25
I17732
sg26
I1261
sg27
I184
sg28
I1074
sg29
I5624
sg30
I14033
sg31
I10533
sg32
I2072
sg33
I479
sg34
I411
sg35
I5985
sg36
I215
sg37
I781
stp100
Rp101
tp102
a(g15
g3
(g4
g5
(dp103
g2
I69239
sg12
I714
sg42
I187
sg7
I427
sg43
I996
sg10
I211
sg44
I452
sg45
I264
sg8
I158
sg46
I211
sg9
I202
sg47
I2
sg11
I31840
sg13
I28744
sg14
I16982
sg15
I20978
sg16
I31813
sg17
I11096
sg18
I6833
sg19
I7388
sg20
I7459
sg21
I9756
sg22
I3487
sg23
I23160
sg24
I38911
sg25
I9102
sg26
I54651
sg27
I912
sg28
I13692
sg29
I71081
sg30
I88576
sg31
I6335
sg32
I69524
sg33
I13514
sg34
I11077
sg35
I7105
sg36
I12677
sg37
I3811
stp104
Rp105
tp106
a(g16
g3
(g4
g5
(dp107
g2
I24436
sg12
I484
sg42
I142
sg7
I254
sg43
I492
sg10
I142
sg44
I278
sg45
I171
sg8
I119
sg46
I139
sg9
I120
sg47
I1
sg11
I27048
sg13
I3263
sg14
I3077
sg15
I45594
sg16
I3669
sg17
I2916
sg18
I2564
sg19
I35499
sg20
I2552
sg21
I1650
sg22
I1041
sg23
I3805
sg24
I3073
sg25
I20665
sg26
I3222
sg27
I177
sg28
I7192
sg29
I9978
sg30
I9406
sg31
I13838
sg32
I2820
sg33
I1759
sg34
I2649
sg35
I4256
sg36
I388
sg37
I1290
stp108
Rp109
tp110
a(g17
g3
(g4
g5
(dp111
g2
I23968
sg12
I228
sg42
I69
sg7
I123
sg43
I284
sg10
I74
sg44
I175
sg45
I86
sg8
I61
sg46
I74
sg9
I90
sg11
I22027
sg13
I2147
sg14
I1808
sg15
I21517
sg16
I1864
sg17
I2653
sg18
I2019
sg19
I16029
sg20
I6536
sg21
I1165
sg22
I403
sg23
I2128
sg24
I6814
sg25
I21830
sg26
I4383
sg27
I243
sg28
I1898
sg29
I24859
sg30
I18529
sg31
I8540
sg32
I2662
sg33
I808
sg34
I509
sg35
I2911
sg36
I169
sg37
I323
stp112
Rp113
tp114
a(g18
g3
(g4
g5
(dp115
g2
I4853
sg12
I206
sg42
I97
sg7
I106
sg43
I192
sg10
I109
sg44
I124
sg45
I92
sg8
I76
sg46
I86
sg9
I84
sg11
I14347
sg13
I1504
sg14
I884
sg15
I10891
sg16
I658
sg17
I528
sg18
I4867
sg19
I18052
sg20
I473
sg21
I427
sg22
I215
sg23
I1455
sg24
I5250
sg25
I22561
sg26
I470
sg27
I73
sg28
I738
sg29
I1642
sg30
I11909
sg31
I5581
sg32
I6237
sg33
I368
sg34
I171
sg35
I2789
sg36
I600
sg37
I210
stp116
Rp117
tp118
a(g19
g3
(g4
g5
(dp119
g2
I26819
sg12
I321
sg42
I92
sg7
I211
sg43
I416
sg10
I116
sg44
I133
sg45
I125
sg8
I68
sg46
I110
sg9
I92
sg47
I3
sg11
I31247
sg13
I36643
sg14
I7750
sg15
I21302
sg16
I22596
sg17
I15537
sg18
I11095
sg19
I2241
sg20
I2690
sg21
I14725
sg22
I1920
sg23
I20457
sg24
I29474
sg25
I28940
sg26
I121253
sg27
I1701
sg28
I12200
sg29
I36099
sg30
I44405
sg31
I2476
sg32
I44179
sg33
I1338
sg34
I15332
sg35
I3785
sg36
I3997
sg37
I9486
stp120
Rp121
tp122
a(g20
g3
(g4
g5
(dp123
g2
I15742
sg12
I310
sg42
I65
sg7
I191
sg43
I338
sg10
I79
sg44
I142
sg45
I85
sg8
I47
sg46
I75
sg9
I71
sg11
I37545
sg13
I2071
sg14
I1883
sg15
I31088
sg16
I3300
sg17
I1056
sg18
I1015
sg19
I22023
sg20
I866
sg21
I2615
sg22
I399
sg23
I2715
sg24
I2036
sg25
I34987
sg26
I3701
sg27
I480
sg28
I1940
sg29
I3218
sg30
I4906
sg31
I9163
sg32
I5732
sg33
I900
sg34
I736
sg35
I3063
sg36
I144
sg37
I251
stp124
Rp125
tp126
a(g21
g3
(g4
g5
(dp127
g2
I20737
sg12
I533
sg42
I64
sg7
I144
sg43
I396
sg10
I83
sg44
I191
sg45
I77
sg8
I69
sg46
I85
sg9
I71
sg11
I23251
sg13
I1966
sg14
I1798
sg15
I18752
sg16
I1299
sg17
I1161
sg18
I1044
sg19
I18155
sg20
I5266
sg21
I1450
sg22
I355
sg23
I2286
sg24
I3569
sg25
I12261
sg26
I2564
sg27
I75
sg28
I1891
sg29
I8638
sg30
I5518
sg31
I6568
sg32
I3805
sg33
I928
sg34
I1011
sg35
I3048
sg36
I90
sg37
I2367
stp128
Rp129
tp130
a(g22
g3
(g4
g5
(dp131
g2
I1537
sg12
I137
sg42
I40
sg7
I43
sg43
I54
sg10
I19
sg44
I49
sg45
I35
sg8
I32
sg46
I31
sg9
I29
sg11
I8510
sg13
I447
sg14
I357
sg15
I4329
sg16
I404
sg17
I223
sg18
I207
sg19
I3222
sg20
I370
sg21
I389
sg22
I283
sg23
I444
sg24
I279
sg25
I7954
sg26
I367
sg27
I63
sg28
I3746
sg29
I907
sg30
I346
sg31
I3243
sg32
I311
sg33
I172
sg34
I142
sg35
I185
sg36
I63
sg37
I78
stp132
Rp133
tp134
a(g23
g3
(g4
g5
(dp135
g2
I48816
sg12
I266
sg42
I59
sg7
I220
sg43
I437
sg10
I79
sg44
I203
sg45
I98
sg8
I68
sg46
I100
sg9
I74
sg11
I56456
sg13
I2998
sg14
I7179
sg15
I44614
sg16
I2622
sg17
I1648
sg18
I1280
sg19
I23823
sg20
I1098
sg21
I1794
sg22
I406
sg23
I4843
sg24
I2423
sg25
I26898
sg26
I1873
sg27
I115
sg28
I10882
sg29
I8209
sg30
I2237
sg31
I9114
sg32
I2518
sg33
I818
sg34
I806
sg35
I12313
sg36
I2047
sg37
I613
stp136
Rp137
tp138
a(g24
g3
(g4
g5
(dp139
g2
I28680
sg12
I338
sg42
I83
sg7
I278
sg43
I400
sg10
I129
sg44
I210
sg45
I126
sg8
I78
sg46
I77
sg9
I75
sg47
I1
sg11
I45118
sg13
I4254
sg14
I3291
sg15
I43496
sg16
I9217
sg17
I2690
sg18
I2979
sg19
I55215
sg20
I2062
sg21
I4503
sg22
I584
sg23
I6567
sg24
I21945
sg25
I55698
sg26
I1884
sg27
I216
sg28
I4420
sg29
I11065
sg30
I3253
sg31
I15187
sg32
I11048
sg33
I1186
sg34
I2373
sg35
I9292
sg36
I254
sg37
I607
stp140
Rp141
tp142
a(g25
g3
(g4
g5
(dp143
g2
I46237
sg12
I407
sg42
I56
sg7
I271
sg43
I549
sg10
I100
sg44
I244
sg45
I292
sg8
I86
sg46
I88
sg9
I97
sg11
I7952
sg13
I14184
sg14
I13950
sg15
I3805
sg16
I18897
sg17
I37591
sg18
I11397
sg19
I8580
sg20
I3544
sg21
I12538
sg22
I2679
sg23
I389270
sg24
I29672
sg25
I24715
sg26
I65526
sg27
I433
sg28
I23101
sg29
I26969
sg30
I93527
sg31
I26079
sg32
I43018
sg33
I11223
sg34
I20223
sg35
I4910
sg36
I3803
sg37
I4470
stp144
Rp145
tp146
a(g26
g3
(g4
g5
(dp147
g2
I41082
sg12
I511
sg42
I117
sg7
I277
sg43
I619
sg10
I110
sg44
I245
sg45
I174
sg8
I92
sg46
I120
sg9
I143
sg47
I3
sg11
I36382
sg13
I15323
sg14
I5034
sg15
I84263
sg16
I32745
sg17
I39237
sg18
I13004
sg19
I30508
sg20
I5347
sg21
I10114
sg22
I2219
sg23
I3984
sg24
I14145
sg25
I22358
sg26
I7661
sg27
I430
sg28
I4683
sg29
I23354
sg30
I2389
sg31
I5831
sg32
I37635
sg33
I1893
sg34
I3395
sg35
I5476
sg36
I719
sg37
I2542
stp148
Rp149
tp150
a(g27
g3
(g4
g5
(dp151
g2
I1487
sg12
I47
sg42
I19
sg7
I37
sg43
I36
sg10
I17
sg44
I35
sg45
I15
sg8
I12
sg46
I29
sg9
I47
sg11
I947
sg13
I254
sg14
I180
sg15
I224
sg16
I136
sg17
I75
sg18
I102
sg19
I559
sg20
I115
sg21
I64
sg22
I43
sg23
I148
sg24
I308
sg25
I287
sg26
I170
sg27
I342
sg28
I142
sg29
I246
sg30
I166
sg31
I5846
sg32
I207
sg33
I110
sg34
I66
sg35
I60
sg36
I33
sg37
I57
stp152
Rp153
tp154
a(g28
g3
(g4
g5
(dp155
g2
I18085
sg12
I2777
sg42
I52
sg7
I939
sg43
I369
sg10
I103
sg44
I202
sg45
I76
sg8
I35
sg46
I66
sg9
I54
sg11
I27662
sg13
I3150
sg14
I2133
sg15
I21974
sg16
I1959
sg17
I1128
sg18
I1008
sg19
I14769
sg20
I8721
sg21
I3272
sg22
I269
sg23
I1920
sg24
I15930
sg25
I45527
sg26
I1440
sg27
I86
sg28
I8585
sg29
I8072
sg30
I28708
sg31
I6960
sg32
I6950
sg33
I1215
sg34
I574
sg35
I2004
sg36
I211
sg37
I257
stp156
Rp157
tp158
a(g29
g3
(g4
g5
(dp159
g2
I94988
sg12
I793
sg42
I95
sg7
I385
sg43
I1082
sg10
I133
sg44
I653
sg45
I185
sg8
I130
sg46
I149
sg9
I130
sg47
I1
sg11
I30821
sg13
I15071
sg14
I4927
sg15
I34891
sg16
I4117
sg17
I3427
sg18
I3368
sg19
I35401
sg20
I33761
sg21
I9572
sg22
I764
sg23
I9702
sg24
I5998
sg25
I21967
sg26
I3966
sg27
I1002
sg28
I37135
sg29
I23590
sg30
I3335
sg31
I15213
sg32
I61243
sg33
I3607
sg34
I2137
sg35
I5772
sg36
I317
sg37
I656
stp160
Rp161
tp162
a(g30
g3
(g4
g5
(dp163
g2
I43065
sg12
I402
sg42
I84
sg7
I249
sg43
I521
sg10
I111
sg44
I198
sg45
I159
sg8
I82
sg46
I130
sg9
I119
sg47
I2
sg11
I64496
sg13
I9943
sg14
I5383
sg15
I72212
sg16
I15699
sg17
I34732
sg18
I3614
sg19
I44919
sg20
I2434
sg21
I12477
sg22
I1111
sg23
I10150
sg24
I8168
sg25
I47532
sg26
I13685
sg27
I384
sg28
I5367
sg29
I23190
sg30
I5564
sg31
I77653
sg32
I27247
sg33
I1686
sg34
I5793
sg35
I10726
sg36
I332
sg37
I1303
stp164
Rp165
tp166
a(g31
g3
(g4
g5
(dp167
g2
I14910
sg12
I131
sg42
I32
sg7
I83
sg43
I139
sg10
I45
sg44
I67
sg45
I34
sg8
I34
sg46
I35
sg9
I49
sg11
I20498
sg13
I8012
sg14
I13239
sg15
I6406
sg16
I8813
sg17
I3591
sg18
I1645
sg19
I6429
sg20
I1474
sg21
I9942
sg22
I913
sg23
I12868
sg24
I12349
sg25
I2131
sg26
I21164
sg27
I287
sg28
I10804
sg29
I25286
sg30
I29534
sg31
I551
sg32
I16877
sg33
I601
sg34
I1219
sg35
I2452
sg36
I1629
sg37
I3417
stp168
Rp169
tp170
a(g32
g3
(g4
g5
(dp171
g2
I67465
sg12
I491
sg42
I88
sg7
I347
sg43
I752
sg10
I126
sg44
I340
sg45
I160
sg8
I101
sg46
I172
sg9
I125
sg47
I1
sg11
I48280
sg13
I8171
sg14
I4407
sg15
I62459
sg16
I2876
sg17
I2152
sg18
I2733
sg19
I45422
sg20
I30610
sg21
I3183
sg22
I774
sg23
I5070
sg24
I5407
sg25
I46291
sg26
I4084
sg27
I215
sg28
I3901
sg29
I18499
sg30
I37846
sg31
I19528
sg32
I9018
sg33
I6190
sg34
I8001
sg35
I10704
sg36
I410
sg37
I1300
stp172
Rp173
tp174
a(g33
g3
(g4
g5
(dp175
g2
I4712
sg12
I69
sg42
I22
sg7
I132
sg43
I115
sg10
I25
sg44
I44
sg45
I18
sg8
I24
sg46
I33
sg9
I57
sg11
I12779
sg13
I729
sg14
I653
sg15
I15056
sg16
I655
sg17
I369
sg18
I455
sg19
I8901
sg20
I2343
sg21
I319
sg22
I169
sg23
I647
sg24
I783
sg25
I14006
sg26
I2880
sg27
I56
sg28
I1503
sg29
I7984
sg30
I1188
sg31
I410
sg32
I1040
sg33
I734
sg34
I135
sg35
I634
sg36
I77
sg37
I192
stp176
Rp177
tp178
a(g34
g3
(g4
g5
(dp179
g2
I12908
sg12
I191
sg42
I41
sg7
I118
sg43
I225
sg10
I73
sg44
I100
sg45
I55
sg8
I48
sg46
I41
sg9
I51
sg47
I1
sg11
I13722
sg13
I882
sg14
I513
sg15
I30948
sg16
I840
sg17
I513
sg18
I367
sg19
I25931
sg20
I338
sg21
I1206
sg22
I122
sg23
I697
sg24
I924
sg25
I7124
sg26
I7039
sg27
I24
sg28
I944
sg29
I2118
sg30
I1384
sg31
I1024
sg32
I1564
sg33
I166
sg34
I352
sg35
I825
sg36
I97
sg37
I201
stp180
Rp181
tp182
a(g35
g3
(g4
g5
(dp183
g2
I31217
sg12
I315
sg42
I66
sg7
I142
sg43
I383
sg10
I57
sg44
I181
sg45
I58
sg8
I56
sg46
I80
sg9
I71
sg47
I1
sg11
I15979
sg13
I3922
sg14
I3213
sg15
I6230
sg16
I2589
sg17
I1753
sg18
I1850
sg19
I2839
sg20
I1571
sg21
I1280
sg22
I516
sg23
I3704
sg24
I3600
sg25
I7482
sg26
I2979
sg27
I153
sg28
I4205
sg29
I9936
sg30
I2208
sg31
I2949
sg32
I4106
sg33
I1560
sg34
I846
sg35
I424
sg36
I265
sg37
I3088
stp184
Rp185
tp186
a(g36
g3
(g4
g5
(dp187
g2
I9187
sg12
I182
sg42
I28
sg7
I87
sg43
I253
sg10
I54
sg44
I130
sg45
I98
sg8
I38
sg46
I35
sg9
I47
sg11
I1880
sg13
I1631
sg14
I718
sg15
I1753
sg16
I420
sg17
I340
sg18
I512
sg19
I2711
sg20
I458
sg21
I133
sg22
I91
sg23
I729
sg24
I530
sg25
I974
sg26
I6543
sg27
I44
sg28
I3583
sg29
I1012
sg30
I305
sg31
I735
sg32
I2721
sg33
I209
sg34
I370
sg35
I3431
sg36
I3007
sg37
I117
stp188
Rp189
tp190
a(g37
g3
(g4
g5
(dp191
g2
I7628
sg12
I107
sg42
I23
sg7
I48
sg43
I122
sg10
I37
sg44
I55
sg45
I33
sg8
I18
sg46
I23
sg9
I28
sg47
I2
sg11
I9995
sg13
I596
sg14
I957
sg15
I5606
sg16
I1214
sg17
I476
sg18
I299
sg19
I5421
sg20
I1800
sg21
I606
sg22
I105
sg23
I1367
sg24
I1326
sg25
I4311
sg26
I1037
sg27
I51
sg28
I585
sg29
I626
sg30
I365
sg31
I1501
sg32
I621
sg33
I338
sg34
I453
sg35
I1179
sg36
I90
sg37
I2008
stp192
Rp193
tp194
aaS'\n\t\r~@#%^&*"\'/\\-+<>{}|$!:()[];?,='
p195
aI01
a.